target datalayout = "e-m:e-p270:32:32-p271:32:32-p272:64:64-i64:64-i128:128-f80:128-n8:16:32:64-S128"
target triple = "x86_64-pc-linux-gnu"

@.str.1 = private unnamed_addr constant [12 x i8] c"%3d-%2d-%4d\00", align 1
@.str.2 = private unnamed_addr constant [10 x i8] c"%3d%2d%4d\00", align 1
@.str.3 = private unnamed_addr constant [43 x i8] c"dlp_is_valid_ssn: unknown format type %d \0A\00", align 1
@.str.4 = private unnamed_addr constant [30 x i8] c"dlp_is_valid_ssn: SSN_%s: %s\0A\00", align 1
@.str.5 = private unnamed_addr constant [8 x i8] c"HYPHENS\00", align 1
@.str.6 = private unnamed_addr constant [9 x i8] c"STRIPPED\00", align 1

; Function Attrs: nounwind uwtable
define i32 @dlp_is_valid_ssn(ptr noundef %0, i64 noundef %1, i32 noundef %2) #0 {
  %4 = alloca i32, align 4
  %5 = alloca ptr, align 8
  %6 = alloca i64, align 8
  %7 = alloca i32, align 4
  %8 = alloca i32, align 4
  %9 = alloca i32, align 4
  %10 = alloca i32, align 4
  %11 = alloca i64, align 8
  %12 = alloca i32, align 4
  %13 = alloca [12 x i8], align 1
  store ptr %0, ptr %5, align 8
  store i64 %1, ptr %6, align 8
  store i32 %2, ptr %7, align 4
  store i32 1, ptr %12, align 4
  %14 = load ptr, ptr %5, align 8
  %15 = icmp eq ptr %14, null
  br i1 %15, label %16, label %17

16:                                               ; preds = %3
  store i32 0, ptr %4, align 4
  br label %129

17:                                               ; preds = %3
  %18 = load i32, ptr %7, align 4
  %19 = icmp eq i32 %18, 0
  %20 = select i1 %19, i32 11, i32 9
  %21 = sext i32 %20 to i64
  store i64 %21, ptr %11, align 8
  %22 = load i64, ptr %6, align 8
  %23 = load i64, ptr %11, align 8
  %24 = icmp ult i64 %22, %23
  br i1 %24, label %25, label %26

25:                                               ; preds = %17
  store i32 0, ptr %4, align 4
  br label %129

26:                                               ; preds = %17
  %27 = load i64, ptr %6, align 8
  %28 = load i64, ptr %11, align 8
  %29 = icmp ugt i64 %27, %28
  br i1 %29, label %30, label %45

30:                                               ; preds = %26
  %31 = call ptr @__ctype_b_loc() #5
  %32 = load ptr, ptr %31, align 8
  %33 = load ptr, ptr %5, align 8
  %34 = load i64, ptr %11, align 8
  %35 = getelementptr inbounds i8, ptr %33, i64 %34
  %36 = load i8, ptr %35, align 1
  %37 = zext i8 %36 to i32
  %38 = sext i32 %37 to i64
  %39 = getelementptr inbounds i16, ptr %32, i64 %38
  %40 = load i16, ptr %39, align 2
  %41 = zext i16 %40 to i32
  %42 = and i32 %41, 2048
  %43 = icmp ne i32 %42, 0
  br i1 %43, label %44, label %45

44:                                               ; preds = %30
  store i32 0, ptr %4, align 4
  br label %129

45:                                               ; preds = %30, %26
  %46 = getelementptr inbounds [12 x i8], ptr %13, i64 0, i64 0
  %47 = load ptr, ptr %5, align 8
  %48 = load i64, ptr %11, align 8
  %49 = call ptr @strncpy(ptr noundef %46, ptr noundef %47, i64 noundef %48) #7
  %50 = load i64, ptr %11, align 8
  %51 = getelementptr inbounds [12 x i8], ptr %13, i64 0, i64 %50
  store i8 0, ptr %51, align 1
  %52 = load i32, ptr %7, align 4
  switch i32 %52, label %81 [
    i32 0, label %53
    i32 1, label %70
  ]

53:                                               ; preds = %45
  %54 = getelementptr inbounds [12 x i8], ptr %13, i64 0, i64 3
  %55 = load i8, ptr %54, align 1
  %56 = sext i8 %55 to i32
  %57 = icmp ne i32 %56, 45
  br i1 %57, label %63, label %58

58:                                               ; preds = %53
  %59 = getelementptr inbounds [12 x i8], ptr %13, i64 0, i64 6
  %60 = load i8, ptr %59, align 1
  %61 = sext i8 %60 to i32
  %62 = icmp ne i32 %61, 45
  br i1 %62, label %63, label %64

63:                                               ; preds = %58, %53
  store i32 0, ptr %4, align 4
  br label %129

64:                                               ; preds = %58
  %65 = getelementptr inbounds [12 x i8], ptr %13, i64 0, i64 0
  %66 = call i32 (ptr, ptr, ...) @sscanf(ptr noundef %65, ptr noundef @.str.1, ptr noundef %8, ptr noundef %9, ptr noundef %10) #7
  %67 = icmp ne i32 %66, 3
  br i1 %67, label %68, label %69

68:                                               ; preds = %64
  store i32 0, ptr %4, align 4
  br label %129

69:                                               ; preds = %64
  br label %83

70:                                               ; preds = %45
  %71 = getelementptr inbounds [12 x i8], ptr %13, i64 0, i64 0
  %72 = call i32 @cli_isnumber(ptr noundef %71)
  %73 = icmp ne i32 %72, 0
  br i1 %73, label %75, label %74

74:                                               ; preds = %70
  store i32 0, ptr %4, align 4
  br label %129

75:                                               ; preds = %70
  %76 = getelementptr inbounds [12 x i8], ptr %13, i64 0, i64 0
  %77 = call i32 (ptr, ptr, ...) @sscanf(ptr noundef %76, ptr noundef @.str.2, ptr noundef %8, ptr noundef %9, ptr noundef %10) #7
  %78 = icmp ne i32 %77, 3
  br i1 %78, label %79, label %80

79:                                               ; preds = %75
  store i32 0, ptr %4, align 4
  br label %129

80:                                               ; preds = %75
  br label %83

81:                                               ; preds = %45
  %82 = load i32, ptr %7, align 4
  call void (ptr, ...) @cli_dbgmsg(ptr noundef @.str.3, i32 noundef %82)
  store i32 0, ptr %4, align 4
  br label %129

83:                                               ; preds = %80, %69
  %84 = load i32, ptr %8, align 4
  %85 = icmp sgt i32 %84, 772
  br i1 %85, label %104, label %86

86:                                               ; preds = %83
  %87 = load i32, ptr %8, align 4
  %88 = icmp eq i32 %87, 666
  br i1 %88, label %104, label %89

89:                                               ; preds = %86
  %90 = load i32, ptr %8, align 4
  %91 = icmp sle i32 %90, 0
  br i1 %91, label %104, label %92

92:                                               ; preds = %89
  %93 = load i32, ptr %9, align 4
  %94 = icmp sle i32 %93, 0
  br i1 %94, label %104, label %95

95:                                               ; preds = %92
  %96 = load i32, ptr %9, align 4
  %97 = icmp sgt i32 %96, 99
  br i1 %97, label %104, label %98

98:                                               ; preds = %95
  %99 = load i32, ptr %10, align 4
  %100 = icmp sle i32 %99, 0
  br i1 %100, label %104, label %101

101:                                              ; preds = %98
  %102 = load i32, ptr %10, align 4
  %103 = icmp sgt i32 %102, 9999
  br i1 %103, label %104, label %105

104:                                              ; preds = %101, %98, %95, %92, %89, %86, %83
  store i32 0, ptr %12, align 4
  br label %105

105:                                              ; preds = %104, %101
  %106 = load i32, ptr %8, align 4
  %107 = icmp eq i32 %106, 987
  br i1 %107, label %108, label %119

108:                                              ; preds = %105
  %109 = load i32, ptr %9, align 4
  %110 = icmp eq i32 %109, 65
  br i1 %110, label %111, label %119

111:                                              ; preds = %108
  %112 = load i32, ptr %10, align 4
  %113 = icmp sge i32 %112, 4320
  br i1 %113, label %114, label %118

114:                                              ; preds = %111
  %115 = load i32, ptr %10, align 4
  %116 = icmp sle i32 %115, 4329
  br i1 %116, label %117, label %118

117:                                              ; preds = %114
  store i32 0, ptr %12, align 4
  br label %118

118:                                              ; preds = %117, %114, %111
  br label %119

119:                                              ; preds = %118, %108, %105
  %120 = load i32, ptr %12, align 4
  %121 = icmp ne i32 %120, 0
  br i1 %121, label %122, label %127

122:                                              ; preds = %119
  %123 = load i32, ptr %7, align 4
  %124 = icmp eq i32 %123, 0
  %125 = select i1 %124, ptr @.str.5, ptr @.str.6
  %126 = getelementptr inbounds [12 x i8], ptr %13, i64 0, i64 0
  call void (ptr, ...) @cli_dbgmsg(ptr noundef @.str.4, ptr noundef %125, ptr noundef %126)
  br label %127

127:                                              ; preds = %122, %119
  %128 = load i32, ptr %12, align 4
  store i32 %128, ptr %4, align 4
  br label %129

129:                                              ; preds = %127, %81, %79, %74, %68, %63, %44, %25, %16
  %130 = load i32, ptr %4, align 4
  ret i32 %130
}