; Function Attrs: nounwind uwtable
define range(i32 0, 2) i32 @dlp_is_valid_ssn(ptr noundef readonly %0, i64 noundef %1, i32 noundef %2) local_unnamed_addr #0 {
  %4 = alloca i32, align 4
  %5 = alloca i32, align 4
  %6 = alloca i32, align 4
  %7 = alloca [12 x i8], align 1
  %8 = icmp eq ptr %0, null
  br i1 %8, label %56, label %9

9:                                                ; preds = %3
  %10 = icmp eq i32 %2, 0
  %11 = select i1 %10, i64 11, i64 9
  %12 = icmp ult i64 %1, %11
  br i1 %12, label %56, label %13

13:                                               ; preds = %9
  %14 = icmp ugt i64 %1, %11
  br i1 %14, label %15, label %24

15:                                               ; preds = %13
  %16 = tail call ptr @__ctype_b_loc() #9
  %17 = load ptr, ptr %16, align 8
  %18 = getelementptr inbounds nuw i8, ptr %0, i64 %11
  %19 = load i8, ptr %18, align 1
  %20 = zext i8 %19 to i64
  %21 = getelementptr inbounds nuw i16, ptr %17, i64 %20
  %22 = load i16, ptr %21, align 2
  %23 = and i16 %22, 2048
  %.not = icmp eq i16 %23, 0
  br i1 %.not, label %24, label %56

24:                                               ; preds = %15, %13
  %25 = call ptr @strncpy(ptr noundef nonnull dereferenceable(1) %7, ptr noundef nonnull dereferenceable(1) %0, i64 noundef %11) #11
  %.sroa.sel.v.sroa.sel.v.sroa.sel.v = select i1 %10, i64 11, i64 9
  %.sroa.sel.v.sroa.sel.v.sroa.sel = getelementptr inbounds nuw i8, ptr %7, i64 %.sroa.sel.v.sroa.sel.v.sroa.sel.v
  store i8 0, ptr %.sroa.sel.v.sroa.sel.v.sroa.sel, align 1
  switch i32 %2, label %39 [
    i32 0, label %26
    i32 1, label %35
  ]

26:                                               ; preds = %24
  %27 = getelementptr inbounds nuw i8, ptr %7, i64 3
  %28 = load i8, ptr %27, align 1
  %29 = icmp ne i8 %28, 45
  %30 = getelementptr inbounds nuw i8, ptr %7, i64 6
  %31 = load i8, ptr %30, align 1
  %32 = icmp ne i8 %31, 45
  %or.cond = select i1 %29, i1 true, i1 %32
  br i1 %or.cond, label %56, label %33

33:                                               ; preds = %26
  %34 = call i32 (ptr, ptr, ...) @sscanf(ptr noundef nonnull %7, ptr noundef nonnull @.str.1, ptr noundef nonnull %4, ptr noundef nonnull %5, ptr noundef nonnull %6) #11
  %.not41 = icmp eq i32 %34, 3
  br i1 %.not41, label %40, label %56

35:                                               ; preds = %24
  %36 = call i32 @cli_isnumber(ptr noundef nonnull %7) #11
  %.not39 = icmp eq i32 %36, 0
  br i1 %.not39, label %56, label %37

37:                                               ; preds = %35
  %38 = call i32 (ptr, ptr, ...) @sscanf(ptr noundef nonnull %7, ptr noundef nonnull @.str.2, ptr noundef nonnull %4, ptr noundef nonnull %5, ptr noundef nonnull %6) #11
  %.not40 = icmp eq i32 %38, 3
  br i1 %.not40, label %40, label %56

39:                                               ; preds = %24
  call void (ptr, ...) @cli_dbgmsg(ptr noundef nonnull @.str.3, i32 noundef %2) #11
  br label %56

40:                                               ; preds = %37, %33
  %41 = load i32, ptr %4, align 4
  %42 = icmp eq i32 %41, 666
  %43 = add i32 %41, -773
  %44 = icmp ult i32 %43, -772
  %or.cond7.not50.not67 = or i1 %42, %44
  %45 = load i32, ptr %5, align 4
  %46 = add i32 %45, -100
  %47 = icmp ult i32 %46, -99
  %48 = load i32, ptr %6, align 4
  %49 = add i32 %48, -10000
  %50 = icmp ult i32 %49, -9999
  %51 = icmp eq i32 %41, 987
  %52 = icmp eq i32 %45, 65
  %or.cond17.not54.not64 = select i1 %51, i1 %52, i1 false
  %53 = add i32 %48, -4320
  %or.cond19 = icmp ult i32 %53, 10
  %.not51.not61 = select i1 %or.cond17.not54.not64, i1 %or.cond19, i1 false
  %.not60 = or i1 %or.cond7.not50.not67, %.not51.not61
  %.not59 = select i1 %.not60, i1 true, i1 %47
  %narrow.not = select i1 %.not59, i1 true, i1 %50
  br i1 %narrow.not, label %56, label %54

54:                                               ; preds = %40
  %55 = select i1 %10, ptr @.str.5, ptr @.str.6
  call void (ptr, ...) @cli_dbgmsg(ptr noundef nonnull @.str.4, ptr noundef nonnull %55, ptr noundef nonnull %7) #11
  br label %56

56:                                               ; preds = %40, %54, %37, %35, %33, %26, %15, %9, %3, %39
  %.035 = phi i32 [ 0, %39 ], [ 0, %3 ], [ 0, %9 ], [ 0, %15 ], [ 0, %26 ], [ 0, %33 ], [ 0, %35 ], [ 0, %37 ], [ 1, %54 ], [ 0, %40 ]
  ret i32 %.035
}